target datalayout = "e-m:e-p270:32:32-p271:32:32-p272:64:64-i64:64-i128:128-f80:128-n8:16:32:64-S128"
target triple = "x86_64-pc-linux-gnu"

%class.FactUnion = type <{ %class.Fact.base, [4 x i8], ptr, i32, [4 x i8] }>
%class.Fact.base = type <{ ptr, i32 }>

; Function Attrs: mustprogress nounwind uwtable
define linkonce_odr dso_local noundef i32 @_ZNK9FactUnion20get_last_written_fidEv(ptr noundef nonnull align 8 dereferenceable(28) %0) #5 comdat align 2 {
  %2 = alloca ptr, align 8
  store ptr %0, ptr %2, align 8, !tbaa !4
  %3 = load ptr, ptr %2, align 8
  %4 = getelementptr inbounds nuw %class.FactUnion, ptr %3, i32 0, i32 3
  %5 = load i32, ptr %4, align 8, !tbaa !18
  ret i32 %5
}

; Function Attrs: mustprogress uwtable
define dso_local noundef i32 @_ZN9FactUnion4joinERK4Fact(ptr noundef nonnull align 8 dereferenceable(28) %0, ptr noundef nonnull align 8 dereferenceable(12) %1) unnamed_addr #4 align 2 {
  %3 = alloca i32, align 4
  %4 = alloca ptr, align 8
  %5 = alloca ptr, align 8
  store ptr %0, ptr %4, align 8, !tbaa !4
  store ptr %1, ptr %5, align 8, !tbaa !92
  %6 = load ptr, ptr %4, align 8
  %7 = load ptr, ptr %5, align 8, !tbaa !92
  %8 = load ptr, ptr %6, align 8, !tbaa !11
  %9 = getelementptr inbounds ptr, ptr %8, i64 11
  %10 = load ptr, ptr %9, align 8
  %11 = call noundef zeroext i1 %10(ptr noundef nonnull align 8 dereferenceable(12) %6, ptr noundef nonnull align 8 dereferenceable(12) %7)
  br i1 %11, label %12, label %34

12:                                               ; preds = %2
  %13 = load ptr, ptr %5, align 8, !tbaa !92
  %14 = load ptr, ptr %6, align 8, !tbaa !11
  %15 = getelementptr inbounds ptr, ptr %14, i64 5
  %16 = load ptr, ptr %15, align 8
  %17 = call noundef zeroext i1 %16(ptr noundef nonnull align 8 dereferenceable(28) %6, ptr noundef nonnull align 8 dereferenceable(12) %13)
  br i1 %17, label %18, label %19

18:                                               ; preds = %12
  store i32 0, ptr %3, align 4
  br label %35

19:                                               ; preds = %12
  %20 = load ptr, ptr %5, align 8, !tbaa !92
  %21 = load ptr, ptr %20, align 8, !tbaa !11
  %22 = getelementptr inbounds ptr, ptr %21, i64 5
  %23 = load ptr, ptr %22, align 8
  %24 = call noundef zeroext i1 %23(ptr noundef nonnull align 8 dereferenceable(12) %20, ptr noundef nonnull align 8 dereferenceable(12) %6)
  br i1 %24, label %25, label %29

25:                                               ; preds = %19
  %26 = load ptr, ptr %5, align 8, !tbaa !92
  %27 = call noundef i32 @_ZNK9FactUnion20get_last_written_fidEv(ptr noundef nonnull align 8 dereferenceable(28) %26)
  %28 = getelementptr inbounds nuw %class.FactUnion, ptr %6, i32 0, i32 3
  store i32 %27, ptr %28, align 8, !tbaa !18
  br label %33

29:                                               ; preds = %19
  %30 = load ptr, ptr %6, align 8, !tbaa !11
  %31 = getelementptr inbounds ptr, ptr %30, i64 9
  %32 = load ptr, ptr %31, align 8
  call void %32(ptr noundef nonnull align 8 dereferenceable(28) %6)
  br label %33

33:                                               ; preds = %29, %25
  store i32 1, ptr %3, align 4
  br label %35

34:                                               ; preds = %2
  store i32 0, ptr %3, align 4
  br label %35

35:                                               ; preds = %34, %33, %18
  %36 = load i32, ptr %3, align 4
  ret i32 %36
}