; Function Attrs: mustprogress uwtable
define dso_local noundef range(i32 0, 2) i32 @_ZN9FactUnion4joinERK4Fact(ptr noundef nonnull align 8 dereferenceable(28) %0, ptr noundef nonnull align 8 dereferenceable(12) %1) unnamed_addr #3 align 2 {
  %3 = load ptr, ptr %0, align 8, !tbaa !4
  %4 = getelementptr inbounds nuw i8, ptr %3, i64 88
  %5 = load ptr, ptr %4, align 8
  %6 = tail call noundef zeroext i1 %5(ptr noundef nonnull align 8 dereferenceable(12) %0, ptr noundef nonnull align 8 dereferenceable(12) %1)
  br i1 %6, label %7, label %25

7:                                                ; preds = %2
  %8 = load ptr, ptr %0, align 8, !tbaa !4
  %9 = getelementptr inbounds nuw i8, ptr %8, i64 40
  %10 = load ptr, ptr %9, align 8
  %11 = tail call noundef zeroext i1 %10(ptr noundef nonnull align 8 dereferenceable(28) %0, ptr noundef nonnull align 8 dereferenceable(12) %1)
  br i1 %11, label %25, label %12

12:                                               ; preds = %7
  %13 = load ptr, ptr %1, align 8, !tbaa !4
  %14 = getelementptr inbounds nuw i8, ptr %13, i64 40
  %15 = load ptr, ptr %14, align 8
  %16 = tail call noundef zeroext i1 %15(ptr noundef nonnull align 8 dereferenceable(12) %1, ptr noundef nonnull align 8 dereferenceable(12) %0)
  br i1 %16, label %17, label %21

17:                                               ; preds = %12
  %18 = getelementptr inbounds nuw i8, ptr %1, i64 24
  %19 = load i32, ptr %18, align 8, !tbaa !15
  %20 = getelementptr inbounds nuw i8, ptr %0, i64 24
  store i32 %19, ptr %20, align 8, !tbaa !15
  br label %25

21:                                               ; preds = %12
  %22 = load ptr, ptr %0, align 8, !tbaa !4
  %23 = getelementptr inbounds nuw i8, ptr %22, i64 72
  %24 = load ptr, ptr %23, align 8
  tail call void %24(ptr noundef nonnull align 8 dereferenceable(28) %0)
  br label %25

25:                                               ; preds = %2, %17, %21, %7
  %.0 = phi i32 [ 0, %7 ], [ 1, %21 ], [ 1, %17 ], [ 0, %2 ]
  ret i32 %.0
}